ccopy_reg
_reconstructor
p0
(csklearn.feature_extraction.text
CountVectorizer
p1
c__builtin__
object
p2
Ntp3
Rp4
(dp5
S'decode_error'
p6
Vstrict
p7
sS'lowercase'
p8
I01
sS'stop_words'
p9
NsS'tokenizer'
p10
NsS'encoding'
p11
Vutf-8
p12
sS'token_pattern'
p13
V(?u)\u005cb\u005cw\u005cw+\u005cb
p14
sS'max_df'
p15
F1.0
sS'fixed_vocabulary'
p16
I00
sS'analyzer'
p17
Vword
p18
sS'vocabulary_'
p19
(dp20
Vhello state
p21
cnumpy.core.multiarray
scalar
p22
(cnumpy
dtype
p23
(S'i8'
p24
I0
I1
tp25
Rp26
(I3
S'<'
p27
NNNI-1
I-1
I0
tp28
bS'\x03\x00\x00\x00\x00\x00\x00\x00'
p29
tp30
Rp31
sVhello universe
p32
g22
(g26
S'\x04\x00\x00\x00\x00\x00\x00\x00'
p33
tp34
Rp35
sVcountry
p36
g22
(g26
S'\x00\x00\x00\x00\x00\x00\x00\x00'
p37
tp38
Rp39
sVstate
p40
g22
(g26
S'\x06\x00\x00\x00\x00\x00\x00\x00'
p41
tp42
Rp43
sVuniverse
p44
g22
(g26
S'\x07\x00\x00\x00\x00\x00\x00\x00'
p45
tp46
Rp47
sVworld
p48
g22
(g26
S'\x08\x00\x00\x00\x00\x00\x00\x00'
p49
tp50
Rp51
sVhello country
p52
g22
(g26
S'\x02\x00\x00\x00\x00\x00\x00\x00'
p53
tp54
Rp55
sVhello
p56
g22
(g26
S'\x01\x00\x00\x00\x00\x00\x00\x00'
p57
tp58
Rp59
sVhello world
p60
g22
(g26
S'\x05\x00\x00\x00\x00\x00\x00\x00'
p61
tp62
Rp63
ssS'binary'
p64
I00
sS'ngram_range'
p65
(I1
I3
tp66
sS'preprocessor'
p67
NsS'min_df'
p68
I1
sS'max_features'
p69
NsS'input'
p70
Vcontent
p71
sS'dtype'
p72
cnumpy
int64
p73
sS'stop_words_'
p74
c__builtin__
set
p75
((lp76
tp77
Rp78
sS'strip_accents'
p79
Nsb.